; Function Attrs: mustprogress uwtable
define noundef zeroext i1 @_ZNK3net18TcpCubicSenderBase11InSlowStartEv(ptr noundef nonnull align 8 dereferenceable(141) %0) unnamed_addr #0 align 2 {
  %2 = load ptr, ptr %0, align 8, !tbaa !3
  %3 = getelementptr inbounds nuw i8, ptr %2, i64 96
  %4 = load ptr, ptr %3, align 8
  %5 = tail call noundef i64 %4(ptr noundef nonnull align 8 dereferenceable(8) %0)
  %6 = load ptr, ptr %0, align 8, !tbaa !3
  %7 = getelementptr inbounds nuw i8, ptr %6, i64 120
  %8 = load ptr, ptr %7, align 8
  %9 = tail call noundef i64 %8(ptr noundef nonnull align 8 dereferenceable(8) %0)
  %10 = icmp ult i64 %5, %9
  ret i1 %10
}